(dp0
S'total_max_upload_rate'
p1
I0
sS'download_dir'
p2
Vmy_cache_folder
p3
sS'total_max_download_rate'
p4
I0
sS'disk_cache_limit'
p5
L19618422784L
sS'ad_storage_limit'
p6
L1073741824L
sS'max_peers'
p7
I50
s.
